target datalayout = "e-m:e-p270:32:32-p271:32:32-p272:64:64-i64:64-i128:128-f80:128-n8:16:32:64-S128"
target triple = "x86_64-pc-linux-gnu"

%struct.s_p_hashtbl = type { %struct.re_pattern_buffer, [173 x ptr] }
%struct.re_pattern_buffer = type { ptr, i64, i64, i64, ptr, ptr, i64, i8 }
%struct.s_p_values = type { ptr, i32, i32, i32, ptr, ptr, ptr, ptr }
%struct._expline_values_st = type { ptr, ptr, ptr }

; Function Attrs: nounwind uwtable
define internal void @_conf_file_values_free(ptr noundef %0) #0 {
  %2 = alloca ptr, align 8
  %3 = alloca i32, align 4
  %4 = alloca ptr, align 8
  %5 = alloca ptr, align 8
  store ptr %0, ptr %2, align 8
  call void @llvm.lifetime.start.p0(i64 4, ptr %3) #9
  call void @llvm.lifetime.start.p0(i64 8, ptr %4) #9
  %6 = load ptr, ptr %2, align 8
  %7 = getelementptr inbounds nuw %struct.s_p_values, ptr %6, i32 0, i32 3
  %8 = load i32, ptr %7, align 8
  %9 = icmp sgt i32 %8, 0
  br i1 %9, label %10, label %99

10:                                               ; preds = %1
  %11 = load ptr, ptr %2, align 8
  %12 = getelementptr inbounds nuw %struct.s_p_values, ptr %11, i32 0, i32 1
  %13 = load i32, ptr %12, align 8
  switch i32 %13, label %82 [
    i32 7, label %14
    i32 9, label %50
    i32 10, label %50
  ]

14:                                               ; preds = %10
  store i32 0, ptr %3, align 4
  br label %15

15:                                               ; preds = %44, %14
  %16 = load i32, ptr %3, align 4
  %17 = load ptr, ptr %2, align 8
  %18 = getelementptr inbounds nuw %struct.s_p_values, ptr %17, i32 0, i32 3
  %19 = load i32, ptr %18, align 8
  %20 = icmp slt i32 %16, %19
  br i1 %20, label %21, label %47

21:                                               ; preds = %15
  call void @llvm.lifetime.start.p0(i64 8, ptr %5) #9
  %22 = load ptr, ptr %2, align 8
  %23 = getelementptr inbounds nuw %struct.s_p_values, ptr %22, i32 0, i32 4
  %24 = load ptr, ptr %23, align 8
  store ptr %24, ptr %5, align 8
  %25 = load ptr, ptr %2, align 8
  %26 = getelementptr inbounds nuw %struct.s_p_values, ptr %25, i32 0, i32 6
  %27 = load ptr, ptr %26, align 8
  %28 = icmp ne ptr %27, null
  br i1 %28, label %29, label %38

29:                                               ; preds = %21
  %30 = load ptr, ptr %2, align 8
  %31 = getelementptr inbounds nuw %struct.s_p_values, ptr %30, i32 0, i32 6
  %32 = load ptr, ptr %31, align 8
  %33 = load ptr, ptr %5, align 8
  %34 = load i32, ptr %3, align 4
  %35 = sext i32 %34 to i64
  %36 = getelementptr inbounds ptr, ptr %33, i64 %35
  %37 = load ptr, ptr %36, align 8
  call void %32(ptr noundef %37)
  br label %43

38:                                               ; preds = %21
  %39 = load ptr, ptr %5, align 8
  %40 = load i32, ptr %3, align 4
  %41 = sext i32 %40 to i64
  %42 = getelementptr inbounds ptr, ptr %39, i64 %41
  call void @slurm_xfree(ptr noundef %42)
  br label %43

43:                                               ; preds = %38, %29
  call void @llvm.lifetime.end.p0(i64 8, ptr %5) #9
  br label %44

44:                                               ; preds = %43
  %45 = load i32, ptr %3, align 4
  %46 = add nsw i32 %45, 1
  store i32 %46, ptr %3, align 4
  br label %15, !llvm.loop !23

47:                                               ; preds = %15
  %48 = load ptr, ptr %2, align 8
  %49 = getelementptr inbounds nuw %struct.s_p_values, ptr %48, i32 0, i32 4
  call void @slurm_xfree(ptr noundef %49)
  br label %98

50:                                               ; preds = %10, %10
  %51 = load ptr, ptr %2, align 8
  %52 = getelementptr inbounds nuw %struct.s_p_values, ptr %51, i32 0, i32 4
  %53 = load ptr, ptr %52, align 8
  store ptr %53, ptr %4, align 8
  %54 = load ptr, ptr %4, align 8
  %55 = getelementptr inbounds nuw %struct._expline_values_st, ptr %54, i32 0, i32 0
  %56 = load ptr, ptr %55, align 8
  call void @s_p_hashtbl_destroy(ptr noundef %56)
  %57 = load ptr, ptr %4, align 8
  %58 = getelementptr inbounds nuw %struct._expline_values_st, ptr %57, i32 0, i32 1
  %59 = load ptr, ptr %58, align 8
  call void @s_p_hashtbl_destroy(ptr noundef %59)
  store i32 0, ptr %3, align 4
  br label %60

60:                                               ; preds = %74, %50
  %61 = load i32, ptr %3, align 4
  %62 = load ptr, ptr %2, align 8
  %63 = getelementptr inbounds nuw %struct.s_p_values, ptr %62, i32 0, i32 3
  %64 = load i32, ptr %63, align 8
  %65 = icmp slt i32 %61, %64
  br i1 %65, label %66, label %77

66:                                               ; preds = %60
  %67 = load ptr, ptr %4, align 8
  %68 = getelementptr inbounds nuw %struct._expline_values_st, ptr %67, i32 0, i32 2
  %69 = load ptr, ptr %68, align 8
  %70 = load i32, ptr %3, align 4
  %71 = sext i32 %70 to i64
  %72 = getelementptr inbounds ptr, ptr %69, i64 %71
  %73 = load ptr, ptr %72, align 8
  call void @s_p_hashtbl_destroy(ptr noundef %73)
  br label %74

74:                                               ; preds = %66
  %75 = load i32, ptr %3, align 4
  %76 = add nsw i32 %75, 1
  store i32 %76, ptr %3, align 4
  br label %60, !llvm.loop !24

77:                                               ; preds = %60
  %78 = load ptr, ptr %4, align 8
  %79 = getelementptr inbounds nuw %struct._expline_values_st, ptr %78, i32 0, i32 2
  call void @slurm_xfree(ptr noundef %79)
  %80 = load ptr, ptr %2, align 8
  %81 = getelementptr inbounds nuw %struct.s_p_values, ptr %80, i32 0, i32 4
  call void @slurm_xfree(ptr noundef %81)
  br label %98

82:                                               ; preds = %10
  %83 = load ptr, ptr %2, align 8
  %84 = getelementptr inbounds nuw %struct.s_p_values, ptr %83, i32 0, i32 6
  %85 = load ptr, ptr %84, align 8
  %86 = icmp ne ptr %85, null
  br i1 %86, label %87, label %94

87:                                               ; preds = %82
  %88 = load ptr, ptr %2, align 8
  %89 = getelementptr inbounds nuw %struct.s_p_values, ptr %88, i32 0, i32 6
  %90 = load ptr, ptr %89, align 8
  %91 = load ptr, ptr %2, align 8
  %92 = getelementptr inbounds nuw %struct.s_p_values, ptr %91, i32 0, i32 4
  %93 = load ptr, ptr %92, align 8
  call void %90(ptr noundef %93)
  br label %97

94:                                               ; preds = %82
  %95 = load ptr, ptr %2, align 8
  %96 = getelementptr inbounds nuw %struct.s_p_values, ptr %95, i32 0, i32 4
  call void @slurm_xfree(ptr noundef %96)
  br label %97

97:                                               ; preds = %94, %87
  br label %98

98:                                               ; preds = %97, %77, %47
  br label %99

99:                                               ; preds = %98, %1
  %100 = load ptr, ptr %2, align 8
  %101 = getelementptr inbounds nuw %struct.s_p_values, ptr %100, i32 0, i32 0
  call void @slurm_xfree(ptr noundef %101)
  call void @slurm_xfree(ptr noundef %2)
  call void @llvm.lifetime.end.p0(i64 8, ptr %4) #9
  call void @llvm.lifetime.end.p0(i64 4, ptr %3) #9
  ret void
}

; Function Attrs: nounwind uwtable
define dso_local void @s_p_hashtbl_destroy(ptr noundef %0) #0 {
  %2 = alloca ptr, align 8
  %3 = alloca ptr, align 8
  %4 = alloca ptr, align 8
  %5 = alloca i32, align 4
  %6 = alloca i32, align 4
  store ptr %0, ptr %2, align 8
  call void @llvm.lifetime.start.p0(i64 8, ptr %3) #9
  call void @llvm.lifetime.start.p0(i64 8, ptr %4) #9
  %7 = load ptr, ptr %2, align 8
  %8 = icmp ne ptr %7, null
  br i1 %8, label %10, label %9

9:                                                ; preds = %1
  store i32 1, ptr %5, align 4
  br label %39

10:                                               ; preds = %1
  call void @llvm.lifetime.start.p0(i64 4, ptr %6) #9
  store i32 0, ptr %6, align 4
  br label %11

11:                                               ; preds = %33, %10
  %12 = load i32, ptr %6, align 4
  %13 = icmp slt i32 %12, 173
  br i1 %13, label %15, label %14

14:                                               ; preds = %11
  store i32 2, ptr %5, align 4
  call void @llvm.lifetime.end.p0(i64 4, ptr %6) #9
  br label %36

15:                                               ; preds = %11
  %16 = load ptr, ptr %2, align 8
  %17 = getelementptr inbounds nuw %struct.s_p_hashtbl, ptr %16, i32 0, i32 1
  %18 = load i32, ptr %6, align 4
  %19 = sext i32 %18 to i64
  %20 = getelementptr inbounds [173 x ptr], ptr %17, i64 0, i64 %19
  %21 = load ptr, ptr %20, align 8
  store ptr %21, ptr %3, align 8
  br label %22

22:                                               ; preds = %30, %15
  %23 = load ptr, ptr %3, align 8
  %24 = icmp ne ptr %23, null
  br i1 %24, label %25, label %32

25:                                               ; preds = %22
  %26 = load ptr, ptr %3, align 8
  %27 = getelementptr inbounds nuw %struct.s_p_values, ptr %26, i32 0, i32 7
  %28 = load ptr, ptr %27, align 8
  store ptr %28, ptr %4, align 8
  %29 = load ptr, ptr %3, align 8
  call void @_conf_file_values_free(ptr noundef %29)
  br label %30

30:                                               ; preds = %25
  %31 = load ptr, ptr %4, align 8
  store ptr %31, ptr %3, align 8
  br label %22, !llvm.loop !8

32:                                               ; preds = %22
  br label %33

33:                                               ; preds = %32
  %34 = load i32, ptr %6, align 4
  %35 = add nsw i32 %34, 1
  store i32 %35, ptr %6, align 4
  br label %11, !llvm.loop !11

36:                                               ; preds = %14
  %37 = load ptr, ptr %2, align 8
  %38 = getelementptr inbounds nuw %struct.s_p_hashtbl, ptr %37, i32 0, i32 0
  call void @regfree(ptr noundef %38)
  call void @slurm_xfree(ptr noundef %2)
  store i32 0, ptr %5, align 4
  br label %39

39:                                               ; preds = %36, %9
  call void @llvm.lifetime.end.p0(i64 8, ptr %4) #9
  call void @llvm.lifetime.end.p0(i64 8, ptr %3) #9
  %40 = load i32, ptr %5, align 4
  switch i32 %40, label %42 [
    i32 0, label %41
    i32 1, label %41
  ]

41:                                               ; preds = %39, %39
  ret void

42:                                               ; preds = %39
  unreachable
}