; Function Attrs: nounwind uwtable
define dso_local void @s_p_hashtbl_destroy(ptr noundef %0) #0 {
  %2 = alloca ptr, align 8
  %3 = alloca ptr, align 8
  store ptr %0, ptr %3, align 8
  %.not = icmp eq ptr %0, null
  br i1 %.not, label %66, label %.preheader8

4:                                                ; preds = %._crit_edge17
  %5 = load ptr, ptr %3, align 8
  call void @regfree(ptr noundef %5) #13
  call void @slurm_xfree(ptr noundef nonnull %3) #13
  br label %66

.preheader8:                                      ; preds = %1, %._crit_edge17
  %indvars.iv24 = phi i64 [ %indvars.iv.next25, %._crit_edge17 ], [ 0, %1 ]
  %6 = load ptr, ptr %3, align 8
  %7 = getelementptr inbounds nuw i8, ptr %6, i64 64
  %8 = getelementptr inbounds nuw [173 x ptr], ptr %7, i64 0, i64 %indvars.iv24
  %9 = load ptr, ptr %8, align 8
  %.not713 = icmp eq ptr %9, null
  br i1 %.not713, label %._crit_edge17, label %.lr.ph16

.lr.ph16:                                         ; preds = %.preheader8, %_conf_file_values_free.exit
  %10 = phi ptr [ %12, %_conf_file_values_free.exit ], [ %9, %.preheader8 ]
  %11 = getelementptr inbounds nuw i8, ptr %10, i64 48
  %12 = load ptr, ptr %11, align 8
  call void @llvm.lifetime.start.p0(i64 8, ptr nonnull %2)
  store ptr %10, ptr %2, align 8
  %13 = getelementptr inbounds nuw i8, ptr %10, i64 16
  %14 = load i32, ptr %13, align 8
  %15 = icmp sgt i32 %14, 0
  br i1 %15, label %16, label %_conf_file_values_free.exit

16:                                               ; preds = %.lr.ph16
  %17 = getelementptr inbounds nuw i8, ptr %10, i64 8
  %18 = load i32, ptr %17, align 8
  switch i32 %18, label %58 [
    i32 7, label %.lr.ph11
    i32 9, label %35
    i32 10, label %35
  ]

.lr.ph11:                                         ; preds = %16, %28
  %indvars.iv21 = phi i64 [ %indvars.iv.next22, %28 ], [ 0, %16 ]
  %19 = phi ptr [ %29, %28 ], [ %10, %16 ]
  %20 = getelementptr inbounds nuw i8, ptr %19, i64 24
  %21 = load ptr, ptr %20, align 8
  %22 = getelementptr inbounds nuw i8, ptr %19, i64 40
  %23 = load ptr, ptr %22, align 8
  %.not.i = icmp eq ptr %23, null
  %24 = getelementptr inbounds nuw ptr, ptr %21, i64 %indvars.iv21
  br i1 %.not.i, label %27, label %25

25:                                               ; preds = %.lr.ph11
  %26 = load ptr, ptr %24, align 8
  call void %23(ptr noundef %26) #13
  br label %28

27:                                               ; preds = %.lr.ph11
  call void @slurm_xfree(ptr noundef %24) #13
  br label %28

28:                                               ; preds = %27, %25
  %indvars.iv.next22 = add nuw nsw i64 %indvars.iv21, 1
  %29 = load ptr, ptr %2, align 8
  %30 = getelementptr inbounds nuw i8, ptr %29, i64 16
  %31 = load i32, ptr %30, align 8
  %32 = sext i32 %31 to i64
  %33 = icmp slt i64 %indvars.iv.next22, %32
  br i1 %33, label %.lr.ph11, label %._crit_edge12, !llvm.loop !8

._crit_edge12:                                    ; preds = %28
  %34 = getelementptr inbounds nuw i8, ptr %29, i64 24
  call void @slurm_xfree(ptr noundef nonnull %34) #13
  br label %_conf_file_values_free.exit

35:                                               ; preds = %16, %16
  %36 = getelementptr inbounds nuw i8, ptr %10, i64 24
  %37 = load ptr, ptr %36, align 8
  %38 = load ptr, ptr %37, align 8
  call void @s_p_hashtbl_destroy(ptr noundef %38)
  %39 = getelementptr inbounds nuw i8, ptr %37, i64 8
  %40 = load ptr, ptr %39, align 8
  call void @s_p_hashtbl_destroy(ptr noundef %40)
  %41 = load ptr, ptr %2, align 8
  %42 = getelementptr inbounds nuw i8, ptr %41, i64 16
  %43 = load i32, ptr %42, align 8
  %44 = icmp sgt i32 %43, 0
  br i1 %44, label %.lr.ph, label %._crit_edge

.lr.ph:                                           ; preds = %35
  %45 = getelementptr inbounds nuw i8, ptr %37, i64 16
  br label %46

46:                                               ; preds = %.lr.ph, %46
  %indvars.iv = phi i64 [ 0, %.lr.ph ], [ %indvars.iv.next, %46 ]
  %47 = load ptr, ptr %45, align 8
  %48 = getelementptr inbounds nuw ptr, ptr %47, i64 %indvars.iv
  %49 = load ptr, ptr %48, align 8
  call void @s_p_hashtbl_destroy(ptr noundef %49)
  %indvars.iv.next = add nuw nsw i64 %indvars.iv, 1
  %50 = load ptr, ptr %2, align 8
  %51 = getelementptr inbounds nuw i8, ptr %50, i64 16
  %52 = load i32, ptr %51, align 8
  %53 = sext i32 %52 to i64
  %54 = icmp slt i64 %indvars.iv.next, %53
  br i1 %54, label %46, label %._crit_edge, !llvm.loop !11

._crit_edge:                                      ; preds = %46, %35
  %55 = getelementptr inbounds nuw i8, ptr %37, i64 16
  call void @slurm_xfree(ptr noundef nonnull %55) #13
  %56 = load ptr, ptr %2, align 8
  %57 = getelementptr inbounds nuw i8, ptr %56, i64 24
  call void @slurm_xfree(ptr noundef nonnull %57) #13
  br label %_conf_file_values_free.exit

58:                                               ; preds = %16
  %59 = getelementptr inbounds nuw i8, ptr %10, i64 40
  %60 = load ptr, ptr %59, align 8
  %.not14.i = icmp eq ptr %60, null
  %61 = getelementptr inbounds nuw i8, ptr %10, i64 24
  br i1 %.not14.i, label %64, label %62

62:                                               ; preds = %58
  %63 = load ptr, ptr %61, align 8
  call void %60(ptr noundef %63) #13
  br label %_conf_file_values_free.exit

64:                                               ; preds = %58
  call void @slurm_xfree(ptr noundef nonnull %61) #13
  br label %_conf_file_values_free.exit

_conf_file_values_free.exit:                      ; preds = %.lr.ph16, %._crit_edge12, %._crit_edge, %62, %64
  %65 = load ptr, ptr %2, align 8
  call void @slurm_xfree(ptr noundef %65) #13
  call void @slurm_xfree(ptr noundef nonnull %2) #13
  call void @llvm.lifetime.end.p0(i64 8, ptr nonnull %2)
  %.not7 = icmp eq ptr %12, null
  br i1 %.not7, label %._crit_edge17, label %.lr.ph16, !llvm.loop !12

._crit_edge17:                                    ; preds = %_conf_file_values_free.exit, %.preheader8
  %indvars.iv.next25 = add nuw nsw i64 %indvars.iv24, 1
  %exitcond.not = icmp eq i64 %indvars.iv.next25, 173
  br i1 %exitcond.not, label %4, label %.preheader8, !llvm.loop !13

66:                                               ; preds = %1, %4
  ret void
}